target datalayout = "e-m:e-p270:32:32-p271:32:32-p272:64:64-i64:64-i128:128-f80:128-n8:16:32:64-S128"
target triple = "x86_64-pc-linux-gnu"

@.str = private unnamed_addr constant [57 x i8] c"%s[%5d] (%12.5e %12.5e %12.5e) - (%12.5e %12.5e %12.5e)\0A\00", align 1
@.str.1 = private unnamed_addr constant [52 x i8] c"%s (%12.5e %12.5e %12.5e) - (%12.5e %12.5e %12.5e)\0A\00", align 1

; Function Attrs: mustprogress uwtable
define void @_Z8cmp_rvecP8_IO_FILEPKciPKfS4_ff(ptr noundef %0, ptr noundef %1, i32 noundef %2, ptr noundef %3, ptr noundef %4, float noundef %5, float noundef %6) #0 {
  %8 = alloca ptr, align 8
  %9 = alloca ptr, align 8
  %10 = alloca i32, align 4
  %11 = alloca ptr, align 8
  %12 = alloca ptr, align 8
  %13 = alloca float, align 4
  %14 = alloca float, align 4
  store ptr %0, ptr %8, align 8, !tbaa !4
  store ptr %1, ptr %9, align 8, !tbaa !9
  store i32 %2, ptr %10, align 4, !tbaa !11
  store ptr %3, ptr %11, align 8, !tbaa !13
  store ptr %4, ptr %12, align 8, !tbaa !13
  store float %5, ptr %13, align 4, !tbaa !15
  store float %6, ptr %14, align 4, !tbaa !15
  %15 = load ptr, ptr %11, align 8, !tbaa !13
  %16 = getelementptr inbounds float, ptr %15, i64 0
  %17 = load float, ptr %16, align 4, !tbaa !15
  %18 = load ptr, ptr %12, align 8, !tbaa !13
  %19 = getelementptr inbounds float, ptr %18, i64 0
  %20 = load float, ptr %19, align 4, !tbaa !15
  %21 = load float, ptr %13, align 4, !tbaa !15
  %22 = load float, ptr %14, align 4, !tbaa !15
  %23 = call noundef zeroext i1 @_Z10equal_realffff(float noundef %17, float noundef %20, float noundef %21, float noundef %22)
  br i1 %23, label %24, label %44

24:                                               ; preds = %7
  %25 = load ptr, ptr %11, align 8, !tbaa !13
  %26 = getelementptr inbounds float, ptr %25, i64 1
  %27 = load float, ptr %26, align 4, !tbaa !15
  %28 = load ptr, ptr %12, align 8, !tbaa !13
  %29 = getelementptr inbounds float, ptr %28, i64 1
  %30 = load float, ptr %29, align 4, !tbaa !15
  %31 = load float, ptr %13, align 4, !tbaa !15
  %32 = load float, ptr %14, align 4, !tbaa !15
  %33 = call noundef zeroext i1 @_Z10equal_realffff(float noundef %27, float noundef %30, float noundef %31, float noundef %32)
  br i1 %33, label %34, label %44

34:                                               ; preds = %24
  %35 = load ptr, ptr %11, align 8, !tbaa !13
  %36 = getelementptr inbounds float, ptr %35, i64 2
  %37 = load float, ptr %36, align 4, !tbaa !15
  %38 = load ptr, ptr %12, align 8, !tbaa !13
  %39 = getelementptr inbounds float, ptr %38, i64 2
  %40 = load float, ptr %39, align 4, !tbaa !15
  %41 = load float, ptr %13, align 4, !tbaa !15
  %42 = load float, ptr %14, align 4, !tbaa !15
  %43 = call noundef zeroext i1 @_Z10equal_realffff(float noundef %37, float noundef %40, float noundef %41, float noundef %42)
  br i1 %43, label %105, label %44

44:                                               ; preds = %34, %24, %7
  %45 = load i32, ptr %10, align 4, !tbaa !11
  %46 = icmp ne i32 %45, -1
  br i1 %46, label %47, label %76

47:                                               ; preds = %44
  %48 = load ptr, ptr %8, align 8, !tbaa !4
  %49 = load ptr, ptr %9, align 8, !tbaa !9
  %50 = load i32, ptr %10, align 4, !tbaa !11
  %51 = load ptr, ptr %11, align 8, !tbaa !13
  %52 = getelementptr inbounds float, ptr %51, i64 0
  %53 = load float, ptr %52, align 4, !tbaa !15
  %54 = fpext float %53 to double
  %55 = load ptr, ptr %11, align 8, !tbaa !13
  %56 = getelementptr inbounds float, ptr %55, i64 1
  %57 = load float, ptr %56, align 4, !tbaa !15
  %58 = fpext float %57 to double
  %59 = load ptr, ptr %11, align 8, !tbaa !13
  %60 = getelementptr inbounds float, ptr %59, i64 2
  %61 = load float, ptr %60, align 4, !tbaa !15
  %62 = fpext float %61 to double
  %63 = load ptr, ptr %12, align 8, !tbaa !13
  %64 = getelementptr inbounds float, ptr %63, i64 0
  %65 = load float, ptr %64, align 4, !tbaa !15
  %66 = fpext float %65 to double
  %67 = load ptr, ptr %12, align 8, !tbaa !13
  %68 = getelementptr inbounds float, ptr %67, i64 1
  %69 = load float, ptr %68, align 4, !tbaa !15
  %70 = fpext float %69 to double
  %71 = load ptr, ptr %12, align 8, !tbaa !13
  %72 = getelementptr inbounds float, ptr %71, i64 2
  %73 = load float, ptr %72, align 4, !tbaa !15
  %74 = fpext float %73 to double
  %75 = call i32 (ptr, ptr, ...) @fprintf(ptr noundef %48, ptr noundef @.str, ptr noundef %49, i32 noundef %50, double noundef %54, double noundef %58, double noundef %62, double noundef %66, double noundef %70, double noundef %74) #9
  br label %104

76:                                               ; preds = %44
  %77 = load ptr, ptr %8, align 8, !tbaa !4
  %78 = load ptr, ptr %9, align 8, !tbaa !9
  %79 = load ptr, ptr %11, align 8, !tbaa !13
  %80 = getelementptr inbounds float, ptr %79, i64 0
  %81 = load float, ptr %80, align 4, !tbaa !15
  %82 = fpext float %81 to double
  %83 = load ptr, ptr %11, align 8, !tbaa !13
  %84 = getelementptr inbounds float, ptr %83, i64 1
  %85 = load float, ptr %84, align 4, !tbaa !15
  %86 = fpext float %85 to double
  %87 = load ptr, ptr %11, align 8, !tbaa !13
  %88 = getelementptr inbounds float, ptr %87, i64 2
  %89 = load float, ptr %88, align 4, !tbaa !15
  %90 = fpext float %89 to double
  %91 = load ptr, ptr %12, align 8, !tbaa !13
  %92 = getelementptr inbounds float, ptr %91, i64 0
  %93 = load float, ptr %92, align 4, !tbaa !15
  %94 = fpext float %93 to double
  %95 = load ptr, ptr %12, align 8, !tbaa !13
  %96 = getelementptr inbounds float, ptr %95, i64 1
  %97 = load float, ptr %96, align 4, !tbaa !15
  %98 = fpext float %97 to double
  %99 = load ptr, ptr %12, align 8, !tbaa !13
  %100 = getelementptr inbounds float, ptr %99, i64 2
  %101 = load float, ptr %100, align 4, !tbaa !15
  %102 = fpext float %101 to double
  %103 = call i32 (ptr, ptr, ...) @fprintf(ptr noundef %77, ptr noundef @.str.1, ptr noundef %78, double noundef %82, double noundef %86, double noundef %90, double noundef %94, double noundef %98, double noundef %102) #9
  br label %104

104:                                              ; preds = %76, %47
  br label %105

105:                                              ; preds = %104, %34
  ret void
}