; Function Attrs: mustprogress uwtable
define void @_Z8cmp_rvecP8_IO_FILEPKciPKfS4_ff(ptr noundef captures(none) %0, ptr noundef %1, i32 noundef %2, ptr noundef readonly captures(none) %3, ptr noundef readonly captures(none) %4, float noundef %5, float noundef %6) local_unnamed_addr #0 {
  %8 = load float, ptr %3, align 4, !tbaa !4
  %9 = load float, ptr %4, align 4, !tbaa !4
  %10 = tail call noundef zeroext i1 @_Z10equal_realffff(float noundef %8, float noundef %9, float noundef %5, float noundef %6)
  br i1 %10, label %11, label %23

11:                                               ; preds = %7
  %12 = getelementptr inbounds nuw i8, ptr %3, i64 4
  %13 = load float, ptr %12, align 4, !tbaa !4
  %14 = getelementptr inbounds nuw i8, ptr %4, i64 4
  %15 = load float, ptr %14, align 4, !tbaa !4
  %16 = tail call noundef zeroext i1 @_Z10equal_realffff(float noundef %13, float noundef %15, float noundef %5, float noundef %6)
  br i1 %16, label %17, label %23

17:                                               ; preds = %11
  %18 = getelementptr inbounds nuw i8, ptr %3, i64 8
  %19 = load float, ptr %18, align 4, !tbaa !4
  %20 = getelementptr inbounds nuw i8, ptr %4, i64 8
  %21 = load float, ptr %20, align 4, !tbaa !4
  %22 = tail call noundef zeroext i1 @_Z10equal_realffff(float noundef %19, float noundef %21, float noundef %5, float noundef %6)
  br i1 %22, label %44, label %23

23:                                               ; preds = %17, %11, %7
  %.not = icmp eq i32 %2, -1
  %24 = load float, ptr %3, align 4, !tbaa !4
  %25 = fpext float %24 to double
  %26 = getelementptr inbounds nuw i8, ptr %3, i64 4
  %27 = load float, ptr %26, align 4, !tbaa !4
  %28 = fpext float %27 to double
  %29 = getelementptr inbounds nuw i8, ptr %3, i64 8
  %30 = load float, ptr %29, align 4, !tbaa !4
  %31 = fpext float %30 to double
  %32 = load float, ptr %4, align 4, !tbaa !4
  %33 = fpext float %32 to double
  %34 = getelementptr inbounds nuw i8, ptr %4, i64 4
  %35 = load float, ptr %34, align 4, !tbaa !4
  %36 = fpext float %35 to double
  %37 = getelementptr inbounds nuw i8, ptr %4, i64 8
  %38 = load float, ptr %37, align 4, !tbaa !4
  %39 = fpext float %38 to double
  br i1 %.not, label %42, label %40

40:                                               ; preds = %23
  %41 = tail call i32 (ptr, ptr, ...) @fprintf(ptr noundef %0, ptr noundef nonnull @.str, ptr noundef %1, i32 noundef %2, double noundef %25, double noundef %28, double noundef %31, double noundef %33, double noundef %36, double noundef %39) #6
  br label %44

42:                                               ; preds = %23
  %43 = tail call i32 (ptr, ptr, ...) @fprintf(ptr noundef %0, ptr noundef nonnull @.str.1, ptr noundef %1, double noundef %25, double noundef %28, double noundef %31, double noundef %33, double noundef %36, double noundef %39) #6
  br label %44

44:                                               ; preds = %40, %42, %17
  ret void
}